Certificate:
    Data:
        Version: 3 (0x2)
        Serial Number:
            ba:dd:d8:5c:7b:91:ed:5d
        Signature Algorithm: sha1WithRSAEncryption
        Issuer: C=GB, ST=Hampshire, O=University of Southampton, OU=Southampton Open Wireless Network, CN=Certificate Authority/emailAddress=support@sown.org.uk
        Validity
            Not Before: May 12 10:36:27 2012 GMT
            Not After : May 12 10:36:27 2015 GMT
        Subject: C=GB, ST=Hampshire, O=University of Southampton, OU=Southampton Open Wireless Network, CN=Certificate Authority/emailAddress=support@sown.org.uk
        Subject Public Key Info:
            Public Key Algorithm: rsaEncryption
            RSA Public Key: (1024 bit)
                Modulus (1024 bit):
                    00:af:87:2b:75:03:ea:94:8e:d2:5e:b9:80:fa:a9:
                    da:a4:12:73:6a:12:04:ee:0c:b0:ab:ce:15:e7:4c:
                    23:15:64:a3:25:be:d6:98:79:61:c8:b3:e5:9a:63:
                    38:61:12:54:27:fd:e9:89:01:e7:ff:6e:69:03:33:
                    36:56:75:94:8f:9a:0b:93:32:4f:4a:c2:4f:a0:c5:
                    67:71:b7:d7:e1:d6:5f:99:f1:c8:2a:ba:cf:7e:69:
                    b1:c5:ba:51:59:39:24:93:96:f5:e2:c6:ae:1a:68:
                    ea:16:e5:23:4c:48:a0:b5:0a:2c:95:d8:94:b7:d8:
                    03:ad:f2:df:6a:f2:45:19:b7
                Exponent: 65537 (0x10001)
        X509v3 extensions:
            X509v3 Subject Key Identifier: 
                48:F3:32:1A:A8:85:A5:A4:EF:D1:37:87:18:14:BF:D9:D9:63:AD:AC
            X509v3 Authority Key Identifier: 
                keyid:48:F3:32:1A:A8:85:A5:A4:EF:D1:37:87:18:14:BF:D9:D9:63:AD:AC
                DirName:/C=GB/ST=Hampshire/O=University of Southampton/OU=Southampton Open Wireless Network/CN=Certificate Authority/emailAddress=support@sown.org.uk
                serial:BA:DD:D8:5C:7B:91:ED:5D

            X509v3 Basic Constraints: 
                CA:TRUE
    Signature Algorithm: sha1WithRSAEncryption
        5a:f7:dd:19:20:75:40:cd:13:dd:bc:7b:cc:c6:b3:bc:1f:ea:
        c2:59:04:f2:4c:00:96:75:f1:19:8d:da:9a:31:f9:3e:c3:0f:
        2d:b6:4d:86:7b:15:3d:2e:bd:94:67:78:bb:47:4b:f4:6a:e4:
        9d:6f:80:2e:e8:4d:6d:51:23:3e:72:c0:f2:36:23:d3:49:cd:
        b0:be:57:b4:6d:a9:a6:b7:6f:ee:58:c4:58:60:f5:fb:e7:a4:
        15:9d:e3:7a:5a:5d:bf:0f:89:14:f8:6b:af:d3:a7:6d:06:6e:
        34:8e:25:27:30:98:54:b1:74:a5:43:02:5b:f3:ce:79:63:19:
        36:09
-----BEGIN CERTIFICATE-----
MIIECjCCA3OgAwIBAgIJALrd2Fx7ke1dMA0GCSqGSIb3DQEBBQUAMIG1MQswCQYD
VQQGEwJHQjESMBAGA1UECBMJSGFtcHNoaXJlMSIwIAYDVQQKExlVbml2ZXJzaXR5
IG9mIFNvdXRoYW1wdG9uMSowKAYDVQQLEyFTb3V0aGFtcHRvbiBPcGVuIFdpcmVs
ZXNzIE5ldHdvcmsxHjAcBgNVBAMTFUNlcnRpZmljYXRlIEF1dGhvcml0eTEiMCAG
CSqGSIb3DQEJARYTc3VwcG9ydEBzb3duLm9yZy51azAeFw0xMjA1MTIxMDM2Mjda
Fw0xNTA1MTIxMDM2MjdaMIG1MQswCQYDVQQGEwJHQjESMBAGA1UECBMJSGFtcHNo
aXJlMSIwIAYDVQQKExlVbml2ZXJzaXR5IG9mIFNvdXRoYW1wdG9uMSowKAYDVQQL
EyFTb3V0aGFtcHRvbiBPcGVuIFdpcmVsZXNzIE5ldHdvcmsxHjAcBgNVBAMTFUNl
cnRpZmljYXRlIEF1dGhvcml0eTEiMCAGCSqGSIb3DQEJARYTc3VwcG9ydEBzb3du
Lm9yZy51azCBnzANBgkqhkiG9w0BAQEFAAOBjQAwgYkCgYEAr4crdQPqlI7SXrmA
+qnapBJzahIE7gywq84V50wjFWSjJb7WmHlhyLPlmmM4YRJUJ/3piQHn/25pAzM2
VnWUj5oLkzJPSsJPoMVncbfX4dZfmfHIKrrPfmmxxbpRWTkkk5b14sauGmjqFuUj
TEigtQosldiUt9gDrfLfavJFGbcCAwEAAaOCAR4wggEaMB0GA1UdDgQWBBRI8zIa
qIWlpO/RN4cYFL/Z2WOtrDCB6gYDVR0jBIHiMIHfgBRI8zIaqIWlpO/RN4cYFL/Z
2WOtrKGBu6SBuDCBtTELMAkGA1UEBhMCR0IxEjAQBgNVBAgTCUhhbXBzaGlyZTEi
MCAGA1UEChMZVW5pdmVyc2l0eSBvZiBTb3V0aGFtcHRvbjEqMCgGA1UECxMhU291
dGhhbXB0b24gT3BlbiBXaXJlbGVzcyBOZXR3b3JrMR4wHAYDVQQDExVDZXJ0aWZp
Y2F0ZSBBdXRob3JpdHkxIjAgBgkqhkiG9w0BCQEWE3N1cHBvcnRAc293bi5vcmcu
dWuCCQC63dhce5HtXTAMBgNVHRMEBTADAQH/MA0GCSqGSIb3DQEBBQUAA4GBAFr3
3RkgdUDNE928e8zGs7wf6sJZBPJMAJZ18RmN2pox+T7DDy22TYZ7FT0uvZRneLtH
S/Rq5J1vgC7oTW1RIz5ywPI2I9NJzbC+V7Rtqaa3b+5YxFhg9fvnpBWd43paXb8P
iRT4a6/Tp20GbjSOJScwmFSxdKVDAlvzznljGTYJ
-----END CERTIFICATE-----

